target datalayout = "e-m:e-p270:32:32-p271:32:32-p272:64:64-i64:64-i128:128-f80:128-n8:16:32:64-S128"
target triple = "x86_64-unknown-linux-gnu"

%"class.testing::MatcherDescriberInterface" = type { ptr }
%"struct.testing::internal::SharedPayloadBase" = type { %"struct.std::atomic" }
%"struct.std::atomic" = type { %"struct.std::__atomic_base" }
%"struct.std::__atomic_base" = type { i32 }
%"class.testing::internal::MatcherBase.371" = type { %"class.testing::MatcherDescriberInterface", ptr, %"union.testing::internal::MatcherBase<const std::tuple<absl::Span<const signed char>, absl::Span<const signed char>, absl::Span<const absl::container_internal::(anonymous namespace)::Int128>> &>::Buffer" }
%"union.testing::internal::MatcherBase<const std::tuple<absl::Span<const signed char>, absl::Span<const signed char>, absl::Span<const absl::container_internal::(anonymous namespace)::Int128>> &>::Buffer" = type { ptr }
%"class.std::unique_ptr.398" = type { %"struct.std::__uniq_ptr_data.399" }
%"struct.std::__uniq_ptr_data.399" = type { %"class.std::__uniq_ptr_impl.400" }
%"class.std::__uniq_ptr_impl.400" = type { %"class.std::tuple.401" }
%"class.std::tuple.401" = type { %"struct.std::_Tuple_impl.402" }
%"struct.std::_Tuple_impl.402" = type { %"struct.std::_Head_base.405" }
%"struct.std::_Head_base.405" = type { ptr }
%"struct.testing::internal::SharedPayload.397" = type { %"struct.testing::internal::SharedPayloadBase", %"class.std::unique_ptr.398" }

; Function Attrs: mustprogress nounwind uwtable
define internal noundef nonnull align 8 dereferenceable(8) ptr @_ZNSt10_Head_baseILm0EPKN7testing16MatcherInterfaceIRKSt5tupleIJN4absl4SpanIKaEES6_NS4_IKNS3_18container_internal12_GLOBAL__N_16Int128EEEEEEELb0EE7_M_headERKSI_(ptr noundef nonnull align 8 dereferenceable(8) %__b) #7 align 2 {
entry:
  %__b.addr = alloca ptr, align 8
  store ptr %__b, ptr %__b.addr, align 8
  %0 = load ptr, ptr %__b.addr, align 8
  %_M_head_impl = getelementptr inbounds %"struct.std::_Head_base.405", ptr %0, i32 0, i32 0
  ret ptr %_M_head_impl
}

; Function Attrs: mustprogress nounwind uwtable
define internal noundef nonnull align 8 dereferenceable(8) ptr @_ZNSt11_Tuple_implILm0EJPKN7testing16MatcherInterfaceIRKSt5tupleIJN4absl4SpanIKaEES6_NS4_IKNS3_18container_internal12_GLOBAL__N_16Int128EEEEEEESt14default_deleteISG_EEE7_M_headERKSK_(ptr noundef nonnull align 8 dereferenceable(8) %__t) #7 align 2 {
entry:
  %__t.addr = alloca ptr, align 8
  store ptr %__t, ptr %__t.addr, align 8
  %0 = load ptr, ptr %__t.addr, align 8
  %call = call noundef nonnull align 8 dereferenceable(8) ptr @_ZNSt10_Head_baseILm0EPKN7testing16MatcherInterfaceIRKSt5tupleIJN4absl4SpanIKaEES6_NS4_IKNS3_18container_internal12_GLOBAL__N_16Int128EEEEEEELb0EE7_M_headERKSI_(ptr noundef nonnull align 8 dereferenceable(8) %0) #3
  ret ptr %call
}

; Function Attrs: mustprogress nounwind uwtable
define internal noundef nonnull align 8 dereferenceable(8) ptr @_ZSt12__get_helperILm0EPKN7testing16MatcherInterfaceIRKSt5tupleIJN4absl4SpanIKaEES6_NS4_IKNS3_18container_internal12_GLOBAL__N_16Int128EEEEEEEJSt14default_deleteISG_EEERKT0_RKSt11_Tuple_implIXT_EJSK_DpT1_EE(ptr noundef nonnull align 8 dereferenceable(8) %__t) #7 {
entry:
  %__t.addr = alloca ptr, align 8
  store ptr %__t, ptr %__t.addr, align 8
  %0 = load ptr, ptr %__t.addr, align 8
  %call = call noundef nonnull align 8 dereferenceable(8) ptr @_ZNSt11_Tuple_implILm0EJPKN7testing16MatcherInterfaceIRKSt5tupleIJN4absl4SpanIKaEES6_NS4_IKNS3_18container_internal12_GLOBAL__N_16Int128EEEEEEESt14default_deleteISG_EEE7_M_headERKSK_(ptr noundef nonnull align 8 dereferenceable(8) %0) #3
  ret ptr %call
}

; Function Attrs: mustprogress nounwind uwtable
define internal noundef nonnull align 8 dereferenceable(8) ptr @_ZSt3getILm0EJPKN7testing16MatcherInterfaceIRKSt5tupleIJN4absl4SpanIKaEES6_NS4_IKNS3_18container_internal12_GLOBAL__N_16Int128EEEEEEESt14default_deleteISG_EEERKNSt13tuple_elementIXT_ES2_IJDpT0_EEE4typeERKSN_(ptr noundef nonnull align 8 dereferenceable(8) %__t) #7 {
entry:
  %__t.addr = alloca ptr, align 8
  store ptr %__t, ptr %__t.addr, align 8
  %0 = load ptr, ptr %__t.addr, align 8
  %call = call noundef nonnull align 8 dereferenceable(8) ptr @_ZSt12__get_helperILm0EPKN7testing16MatcherInterfaceIRKSt5tupleIJN4absl4SpanIKaEES6_NS4_IKNS3_18container_internal12_GLOBAL__N_16Int128EEEEEEEJSt14default_deleteISG_EEERKT0_RKSt11_Tuple_implIXT_EJSK_DpT1_EE(ptr noundef nonnull align 8 dereferenceable(8) %0) #3
  ret ptr %call
}

; Function Attrs: mustprogress nounwind uwtable
define internal noundef ptr @_ZNKSt15__uniq_ptr_implIKN7testing16MatcherInterfaceIRKSt5tupleIJN4absl4SpanIKaEES6_NS4_IKNS3_18container_internal12_GLOBAL__N_16Int128EEEEEEESt14default_deleteISG_EE6_M_ptrEv(ptr noundef nonnull align 8 dereferenceable(8) %this) #7 align 2 {
entry:
  %this.addr = alloca ptr, align 8
  store ptr %this, ptr %this.addr, align 8
  %this1 = load ptr, ptr %this.addr, align 8
  %_M_t = getelementptr inbounds %"class.std::__uniq_ptr_impl.400", ptr %this1, i32 0, i32 0
  %call = call noundef nonnull align 8 dereferenceable(8) ptr @_ZSt3getILm0EJPKN7testing16MatcherInterfaceIRKSt5tupleIJN4absl4SpanIKaEES6_NS4_IKNS3_18container_internal12_GLOBAL__N_16Int128EEEEEEESt14default_deleteISG_EEERKNSt13tuple_elementIXT_ES2_IJDpT0_EEE4typeERKSN_(ptr noundef nonnull align 8 dereferenceable(8) %_M_t) #3
  %0 = load ptr, ptr %call, align 8
  ret ptr %0
}

; Function Attrs: mustprogress nounwind uwtable
define internal noundef ptr @_ZNKSt10unique_ptrIKN7testing16MatcherInterfaceIRKSt5tupleIJN4absl4SpanIKaEES6_NS4_IKNS3_18container_internal12_GLOBAL__N_16Int128EEEEEEESt14default_deleteISG_EE3getEv(ptr noundef nonnull align 8 dereferenceable(8) %this) #7 align 2 {
entry:
  %this.addr = alloca ptr, align 8
  store ptr %this, ptr %this.addr, align 8
  %this1 = load ptr, ptr %this.addr, align 8
  %_M_t = getelementptr inbounds %"class.std::unique_ptr.398", ptr %this1, i32 0, i32 0
  %call = call noundef ptr @_ZNKSt15__uniq_ptr_implIKN7testing16MatcherInterfaceIRKSt5tupleIJN4absl4SpanIKaEES6_NS4_IKNS3_18container_internal12_GLOBAL__N_16Int128EEEEEEESt14default_deleteISG_EE6_M_ptrEv(ptr noundef nonnull align 8 dereferenceable(8) %_M_t) #3
  ret ptr %call
}

; Function Attrs: mustprogress nounwind uwtable
define internal noundef nonnull align 8 dereferenceable(8) ptr @_ZNKSt10unique_ptrIKN7testing16MatcherInterfaceIRKSt5tupleIJN4absl4SpanIKaEES6_NS4_IKNS3_18container_internal12_GLOBAL__N_16Int128EEEEEEESt14default_deleteISG_EEdeEv(ptr noundef nonnull align 8 dereferenceable(8) %this) #7 align 2 {
entry:
  %this.addr = alloca ptr, align 8
  store ptr %this, ptr %this.addr, align 8
  %this1 = load ptr, ptr %this.addr, align 8
  br label %do.body

do.body:                                          ; preds = %entry
  br label %do.cond

do.cond:                                          ; preds = %do.body
  br label %do.end

do.end:                                           ; preds = %do.cond
  %call = call noundef ptr @_ZNKSt10unique_ptrIKN7testing16MatcherInterfaceIRKSt5tupleIJN4absl4SpanIKaEES6_NS4_IKNS3_18container_internal12_GLOBAL__N_16Int128EEEEEEESt14default_deleteISG_EE3getEv(ptr noundef nonnull align 8 dereferenceable(8) %this1) #3
  ret ptr %call
}

; Function Attrs: mustprogress nounwind uwtable
define internal noundef nonnull align 8 dereferenceable(8) ptr @_ZN7testing8internal11MatcherBaseIRKSt5tupleIJN4absl4SpanIKaEES6_NS4_IKNS3_18container_internal12_GLOBAL__N_16Int128EEEEEE11ValuePolicyIPKNS_16MatcherInterfaceISE_EELb1EE3GetERKSF_(ptr noundef nonnull align 8 dereferenceable(24) %m) #7 align 2 {
entry:
  %m.addr = alloca ptr, align 8
  store ptr %m, ptr %m.addr, align 8
  %0 = load ptr, ptr %m.addr, align 8
  %buffer_ = getelementptr inbounds %"class.testing::internal::MatcherBase.371", ptr %0, i32 0, i32 2
  %1 = load ptr, ptr %buffer_, align 8
  %value = getelementptr inbounds %"struct.testing::internal::SharedPayload.397", ptr %1, i32 0, i32 1
  %call = call noundef nonnull align 8 dereferenceable(8) ptr @_ZNKSt10unique_ptrIKN7testing16MatcherInterfaceIRKSt5tupleIJN4absl4SpanIKaEES6_NS4_IKNS3_18container_internal12_GLOBAL__N_16Int128EEEEEEESt14default_deleteISG_EEdeEv(ptr noundef nonnull align 8 dereferenceable(8) %value) #3
  ret ptr %call
}

; Function Attrs: mustprogress uwtable
define internal void @_ZN7testing8internal11MatcherBaseIRKSt5tupleIJN4absl4SpanIKaEES6_NS4_IKNS3_18container_internal12_GLOBAL__N_16Int128EEEEEE12DescribeImplINSF_11ValuePolicyIPKNS_16MatcherInterfaceISE_EELb1EEEEEvRKSF_PSob(ptr noundef nonnull align 8 dereferenceable(24) %m, ptr noundef %os, i1 noundef zeroext %negation) #4 align 2 {
entry:
  %m.addr = alloca ptr, align 8
  %os.addr = alloca ptr, align 8
  %negation.addr = alloca i8, align 1
  store ptr %m, ptr %m.addr, align 8
  store ptr %os, ptr %os.addr, align 8
  %frombool = zext i1 %negation to i8
  store i8 %frombool, ptr %negation.addr, align 1
  %0 = load i8, ptr %negation.addr, align 1
  %tobool = trunc i8 %0 to i1
  br i1 %tobool, label %if.then, label %if.else

if.then:                                          ; preds = %entry
  %1 = load ptr, ptr %m.addr, align 8
  %call = call noundef nonnull align 8 dereferenceable(8) ptr @_ZN7testing8internal11MatcherBaseIRKSt5tupleIJN4absl4SpanIKaEES6_NS4_IKNS3_18container_internal12_GLOBAL__N_16Int128EEEEEE11ValuePolicyIPKNS_16MatcherInterfaceISE_EELb1EE3GetERKSF_(ptr noundef nonnull align 8 dereferenceable(24) %1)
  %2 = load ptr, ptr %os.addr, align 8
  %vtable = load ptr, ptr %call, align 8
  %vfn = getelementptr inbounds ptr, ptr %vtable, i64 3
  %3 = load ptr, ptr %vfn, align 8
  call void %3(ptr noundef nonnull align 8 dereferenceable(8) %call, ptr noundef %2)
  br label %if.end

if.else:                                          ; preds = %entry
  %4 = load ptr, ptr %m.addr, align 8
  %call1 = call noundef nonnull align 8 dereferenceable(8) ptr @_ZN7testing8internal11MatcherBaseIRKSt5tupleIJN4absl4SpanIKaEES6_NS4_IKNS3_18container_internal12_GLOBAL__N_16Int128EEEEEE11ValuePolicyIPKNS_16MatcherInterfaceISE_EELb1EE3GetERKSF_(ptr noundef nonnull align 8 dereferenceable(24) %4)
  %5 = load ptr, ptr %os.addr, align 8
  %vtable2 = load ptr, ptr %call1, align 8
  %vfn3 = getelementptr inbounds ptr, ptr %vtable2, i64 2
  %6 = load ptr, ptr %vfn3, align 8
  call void %6(ptr noundef nonnull align 8 dereferenceable(8) %call1, ptr noundef %5)
  br label %if.end

if.end:                                           ; preds = %if.else, %if.then
  ret void
}