; Function Attrs: mustprogress uwtable
define internal void @_ZN7testing8internal11MatcherBaseIRKSt5tupleIJN4absl4SpanIKaEES6_NS4_IKNS3_18container_internal12_GLOBAL__N_16Int128EEEEEE12DescribeImplINSF_11ValuePolicyIPKNS_16MatcherInterfaceISE_EELb1EEEEEvRKSF_PSob(ptr nocapture noundef nonnull readonly align 8 dereferenceable(24) %m, ptr noundef %os, i1 noundef zeroext %negation) #3 align 2 {
entry:
  %0 = getelementptr inbounds i8, ptr %m, i64 16
  %m.val = load ptr, ptr %0, align 8
  %1 = getelementptr i8, ptr %m.val, i64 8
  %m.val.val = load ptr, ptr %1, align 8
  %vtable = load ptr, ptr %m.val.val, align 8
  %. = select i1 %negation, i64 24, i64 16
  %vfn3 = getelementptr inbounds i8, ptr %vtable, i64 %.
  %2 = load ptr, ptr %vfn3, align 8
  tail call void %2(ptr noundef nonnull align 8 dereferenceable(8) %m.val.val, ptr noundef %os)
  ret void
}